target datalayout = "e-m:e-p270:32:32-p271:32:32-p272:64:64-i64:64-i128:128-f80:128-n8:16:32:64-S128"
target triple = "x86_64-pc-linux-gnu"

%"class.std::__cxx11::basic_string" = type { %"struct.std::__cxx11::basic_string<char>::_Alloc_hider", i64, %union.anon }
%"struct.std::__cxx11::basic_string<char>::_Alloc_hider" = type { ptr }
%union.anon = type { i64, [8 x i8] }
%"class.std::filesystem::__cxx11::path" = type { %"class.std::__cxx11::basic_string", %"struct.std::filesystem::__cxx11::path::_List" }
%"struct.std::filesystem::__cxx11::path::_List" = type { %"class.std::unique_ptr" }
%"class.std::unique_ptr" = type { %"struct.std::__uniq_ptr_data" }
%"struct.std::__uniq_ptr_data" = type { %"class.std::__uniq_ptr_impl" }
%"class.std::__uniq_ptr_impl" = type { %"class.std::tuple" }
%"class.std::tuple" = type { %"struct.std::_Tuple_impl" }
%"struct.std::_Tuple_impl" = type { %"struct.std::_Head_base.1" }
%"struct.std::_Head_base.1" = type { ptr }

@.str = private unnamed_addr constant [122 x i8] c"generated/home/dtcxzyw/WorkSpace/Projects/compilers/llvm-opt-benchmark/bench/gromacs/gromacs/src/gromacs/fileio/tngio.cpp\00", align 1
@.str.5 = private unnamed_addr constant [8 x i8] c"reading\00", align 1
@.str.6 = private unnamed_addr constant [8 x i8] c"writing\00", align 1
@.str.7 = private unnamed_addr constant [10 x i8] c"appending\00", align 1
@.str.8 = private unnamed_addr constant [29 x i8] c"Invalid file opening mode %c\00", align 1

; Function Attrs: mustprogress uwtable
define internal noundef ptr @_ZL10modeToVerbc(i8 noundef signext %0) #0 personality ptr @__gxx_personality_v0 {
  %2 = alloca i8, align 1
  %3 = alloca ptr, align 8
  %4 = alloca %"class.std::filesystem::__cxx11::path", align 8
  %5 = alloca ptr, align 8
  %6 = alloca i32, align 4
  store i8 %0, ptr %2, align 1, !tbaa !9
  call void @llvm.lifetime.start.p0(i64 8, ptr %3) #16
  %7 = load i8, ptr %2, align 1, !tbaa !9
  %8 = sext i8 %7 to i32
  switch i32 %8, label %12 [
    i32 114, label %9
    i32 119, label %10
    i32 97, label %11
  ]

9:                                                ; preds = %1
  store ptr @.str.5, ptr %3, align 8, !tbaa !27
  br label %20

10:                                               ; preds = %1
  store ptr @.str.6, ptr %3, align 8, !tbaa !27
  br label %20

11:                                               ; preds = %1
  store ptr @.str.7, ptr %3, align 8, !tbaa !27
  br label %20

12:                                               ; preds = %1
  call void @llvm.lifetime.start.p0(i64 40, ptr %4) #16
  call void @_ZNSt10filesystem7__cxx114pathC2IA122_cS1_EERKT_NS1_6formatE(ptr noundef nonnull align 8 dereferenceable(40) %4, ptr noundef nonnull align 1 dereferenceable(122) @.str, i8 noundef zeroext 2)
  %13 = load i8, ptr %2, align 1, !tbaa !9
  %14 = sext i8 %13 to i32
  invoke void (i32, ptr, i32, ptr, ...) @_Z9gmx_fataliRKNSt10filesystem7__cxx114pathEiPKcz(i32 noundef 0, ptr noundef nonnull align 8 dereferenceable(40) %4, i32 noundef 117, ptr noundef @.str.8, i32 noundef %14) #17
          to label %15 unwind label %16

15:                                               ; preds = %12
  unreachable

16:                                               ; preds = %12
  %17 = landingpad { ptr, i32 }
          cleanup
  %18 = extractvalue { ptr, i32 } %17, 0
  store ptr %18, ptr %5, align 8
  %19 = extractvalue { ptr, i32 } %17, 1
  store i32 %19, ptr %6, align 4
  call void @_ZNSt10filesystem7__cxx114pathD2Ev(ptr noundef nonnull align 8 dereferenceable(40) %4) #16
  call void @llvm.lifetime.end.p0(i64 40, ptr %4) #16
  call void @llvm.lifetime.end.p0(i64 8, ptr %3) #16
  br label %22

20:                                               ; preds = %11, %10, %9
  %21 = load ptr, ptr %3, align 8, !tbaa !27
  call void @llvm.lifetime.end.p0(i64 8, ptr %3) #16
  ret ptr %21

22:                                               ; preds = %16
  %23 = load ptr, ptr %5, align 8
  %24 = load i32, ptr %6, align 4
  %25 = insertvalue { ptr, i32 } poison, ptr %23, 0
  %26 = insertvalue { ptr, i32 } %25, i32 %24, 1
  resume { ptr, i32 } %26
}