; Function Attrs: mustprogress uwtable
define internal fastcc noundef nonnull ptr @_ZL10modeToVerbc(i8 noundef signext %0) unnamed_addr #0 personality ptr @__gxx_personality_v0 {
  %2 = alloca %"class.std::filesystem::__cxx11::path", align 8
  switch i8 %0, label %5 [
    i8 114, label %10
    i8 119, label %3
    i8 97, label %4
  ]

3:                                                ; preds = %1
  br label %10

4:                                                ; preds = %1
  br label %10

5:                                                ; preds = %1
  %6 = sext i8 %0 to i32
  call void @llvm.lifetime.start.p0(i64 40, ptr nonnull %2) #22
  call void @_ZNSt10filesystem7__cxx114pathC2IA122_cS1_EERKT_NS1_6formatE(ptr noundef nonnull align 8 dereferenceable(40) %2, ptr noundef nonnull align 1 dereferenceable(122) @.str, i8 noundef zeroext 2)
  invoke void (i32, ptr, i32, ptr, ...) @_Z9gmx_fataliRKNSt10filesystem7__cxx114pathEiPKcz(i32 noundef 0, ptr noundef nonnull align 8 dereferenceable(40) %2, i32 noundef 117, ptr noundef nonnull @.str.8, i32 noundef %6) #23
          to label %7 unwind label %8

7:                                                ; preds = %5
  unreachable

8:                                                ; preds = %5
  %9 = landingpad { ptr, i32 }
          cleanup
  call void @_ZNSt10filesystem7__cxx114pathD2Ev(ptr noundef nonnull align 8 dereferenceable(40) %2) #22
  call void @llvm.lifetime.end.p0(i64 40, ptr nonnull %2) #22
  resume { ptr, i32 } %9

10:                                               ; preds = %1, %4, %3
  %.0 = phi ptr [ @.str.7, %4 ], [ @.str.6, %3 ], [ @.str.5, %1 ]
  ret ptr %.0
}